; Function Attrs: nounwind uwtable
define internal ptr @CDataType_from_address(ptr noundef %0, ptr noundef readonly captures(none) %1, ptr noundef %2, i64 noundef %3, ptr noundef %4) #0 {
  %6 = alloca [1 x ptr], align 8
  call void @llvm.lifetime.start.p0(i64 8, ptr nonnull %6) #17
  %7 = icmp eq ptr %4, null
  %8 = icmp eq i64 %3, 1
  %or.cond3 = and i1 %8, %7
  %9 = icmp ne ptr %2, null
  %or.cond5 = and i1 %9, %or.cond3
  br i1 %or.cond5, label %.thread, label %10

10:                                               ; preds = %5
  %11 = call ptr @_PyArg_UnpackKeywords(ptr noundef %2, i64 noundef %3, ptr noundef null, ptr noundef %4, ptr noundef nonnull @CDataType_from_address._parser, i32 noundef 1, i32 noundef 1, i32 noundef 0, i32 noundef 0, ptr noundef nonnull %6) #17
  %.not = icmp eq ptr %11, null
  br i1 %.not, label %CDataType_from_address_impl.exit, label %.thread

.thread:                                          ; preds = %5, %10
  %12 = phi ptr [ %11, %10 ], [ %2, %5 ]
  %13 = load ptr, ptr %12, align 8, !tbaa !27
  %14 = getelementptr i8, ptr %13, i64 8
  %.val.i = load ptr, ptr %14, align 8, !tbaa !10
  %15 = getelementptr i8, ptr %.val.i, i64 168
  %.val8.i = load i64, ptr %15, align 8, !tbaa !12
  %16 = and i64 %.val8.i, 16777216
  %.not.i = icmp eq i64 %16, 0
  br i1 %.not.i, label %17, label %19

17:                                               ; preds = %.thread
  %18 = load ptr, ptr @PyExc_TypeError, align 8, !tbaa !27
  call void @PyErr_SetString(ptr noundef %18, ptr noundef nonnull @.str.68) #17
  br label %CDataType_from_address_impl.exit

19:                                               ; preds = %.thread
  %20 = call ptr @PyLong_AsVoidPtr(ptr noundef nonnull %13) #17
  %21 = call ptr @PyErr_Occurred() #17
  %.not7.i = icmp eq ptr %21, null
  br i1 %.not7.i, label %22, label %CDataType_from_address_impl.exit

22:                                               ; preds = %19
  %23 = getelementptr i8, ptr %1, i64 888
  %.val9.i = load ptr, ptr %23, align 8, !tbaa !95
  %24 = getelementptr i8, ptr %.val9.i, i64 32
  %.val9.val.i = load ptr, ptr %24, align 8, !tbaa !63
  %25 = ptrtoint ptr %20 to i64
  %26 = call i32 (ptr, ptr, ...) @PySys_Audit(ptr noundef nonnull @.str.2, ptr noundef nonnull @.str.3, i64 noundef %25) #17
  %27 = icmp slt i32 %26, 0
  br i1 %27, label %CDataType_from_address_impl.exit, label %28

28:                                               ; preds = %22
  %29 = getelementptr inbounds nuw i8, ptr %.val9.val.i, i64 40
  %30 = load ptr, ptr %29, align 8, !tbaa !28
  %31 = call i32 @PyObject_IsInstance(ptr noundef %0, ptr noundef %30) #17
  %.not.i.i.i.i = icmp eq i32 %31, 0
  br i1 %.not.i.i.i.i, label %36, label %32

32:                                               ; preds = %28
  %33 = load ptr, ptr %29, align 8, !tbaa !28
  %34 = call ptr @PyObject_GetTypeData(ptr noundef %0, ptr noundef %33) #17
  %35 = load i32, ptr %34, align 8, !tbaa !29
  %.not8.i.i.i.i = icmp eq i32 %35, 0
  br i1 %.not8.i.i.i.i, label %36, label %PyStgInfo_FromType.exit.i.i

36:                                               ; preds = %32, %28
  %37 = load ptr, ptr @PyExc_TypeError, align 8, !tbaa !27
  call void @PyErr_SetString(ptr noundef %37, ptr noundef nonnull @.str.1) #17
  br label %CDataType_from_address_impl.exit

PyStgInfo_FromType.exit.i.i:                      ; preds = %32
  %38 = getelementptr inbounds nuw i8, ptr %34, i64 128
  %39 = load i32, ptr %38, align 8, !tbaa !34
  %40 = or i32 %39, 4096
  store i32 %40, ptr %38, align 8, !tbaa !34
  %41 = getelementptr inbounds nuw i8, ptr %0, i64 304
  %42 = load ptr, ptr %41, align 8, !tbaa !35
  %43 = call ptr %42(ptr noundef %0, i64 noundef 0) #17
  %.not14.i.i = icmp eq ptr %43, null
  br i1 %.not14.i.i, label %CDataType_from_address_impl.exit, label %44

44:                                               ; preds = %PyStgInfo_FromType.exit.i.i
  %45 = getelementptr inbounds nuw i8, ptr %43, i64 16
  store ptr %20, ptr %45, align 16, !tbaa !42
  %46 = getelementptr inbounds nuw i8, ptr %34, i64 24
  %47 = load i64, ptr %46, align 8, !tbaa !36
  %48 = getelementptr inbounds nuw i8, ptr %43, i64 48
  store i64 %47, ptr %48, align 16, !tbaa !37
  %49 = getelementptr inbounds nuw i8, ptr %34, i64 8
  %50 = load i64, ptr %49, align 8, !tbaa !40
  %51 = getelementptr inbounds nuw i8, ptr %43, i64 40
  store i64 %50, ptr %51, align 8, !tbaa !41
  br label %CDataType_from_address_impl.exit

CDataType_from_address_impl.exit:                 ; preds = %44, %PyStgInfo_FromType.exit.i.i, %36, %22, %19, %17, %10
  %.0 = phi ptr [ null, %10 ], [ null, %17 ], [ null, %19 ], [ null, %22 ], [ %43, %44 ], [ null, %36 ], [ null, %PyStgInfo_FromType.exit.i.i ]
  call void @llvm.lifetime.end.p0(i64 8, ptr nonnull %6) #17
  ret ptr %.0
}